; Function Attrs: nounwind uwtable
define internal fastcc range(i32 0, 2003) i32 @_get_stats(ptr noundef %0, ptr noundef captures(none) initializes((0, 8)) %1) unnamed_addr #0 {
  %3 = load ptr, ptr %0, align 8
  %4 = getelementptr inbounds nuw i8, ptr %3, i64 8
  %5 = load i32, ptr %4, align 8
  %6 = icmp eq i32 %5, 0
  %7 = load i32, ptr getelementptr inbounds nuw (i8, ptr @slurm_conf, i64 1152), align 8
  %8 = icmp eq i32 %5, %7
  %or.cond.i = select i1 %6, i1 true, i1 %8
  br i1 %or.cond.i, label %_validate_super_user.exit.thread, label %_validate_super_user.exit

_validate_super_user.exit:                        ; preds = %2
  %9 = tail call i32 @assoc_mgr_get_admin_level(ptr noundef nonnull %0, i32 noundef %5) #10
  %10 = icmp ugt i32 %9, 2
  br i1 %10, label %_validate_super_user.exit.thread, label %11

11:                                               ; preds = %_validate_super_user.exit
  %12 = load ptr, ptr %0, align 8
  %13 = getelementptr inbounds nuw i8, ptr %12, i64 60
  %14 = load i32, ptr %13, align 4
  %15 = tail call i32 (ptr, ...) @error(ptr noundef nonnull @.str.16, i32 noundef %14, ptr noundef nonnull @.str.21) #10
  %16 = load ptr, ptr %0, align 8
  %17 = tail call ptr @slurm_persist_make_rc_msg(ptr noundef %16, i32 noundef 2002, ptr noundef nonnull @.str.21, i16 noundef zeroext 1489) #10
  store ptr %17, ptr %1, align 8
  br label %37

_validate_super_user.exit.thread:                 ; preds = %2, %_validate_super_user.exit
  %18 = tail call i32 @get_log_level() #10
  %19 = icmp sgt i32 %18, 5
  br i1 %19, label %20, label %24

20:                                               ; preds = %_validate_super_user.exit.thread
  %21 = load ptr, ptr %0, align 8
  %22 = getelementptr inbounds nuw i8, ptr %21, i64 8
  %23 = load i32, ptr %22, align 8
  tail call void (i32, ptr, ...) @log_var(i32 noundef 6, ptr noundef nonnull @.str.149, i32 noundef %23) #10
  br label %24

24:                                               ; preds = %20, %_validate_super_user.exit.thread
  %25 = tail call ptr @init_buf(i32 noundef 32768) #10
  store ptr %25, ptr %1, align 8
  tail call void @pack16(i16 noundef zeroext 1490, ptr noundef %25) #10
  %26 = tail call i32 @pthread_mutex_lock(ptr noundef nonnull @rpc_mutex) #10
  %.not = icmp eq i32 %26, 0
  br i1 %.not, label %29, label %27

27:                                               ; preds = %24
  %28 = tail call ptr @__errno_location() #12
  store i32 %26, ptr %28, align 4
  tail call void (ptr, ...) @fatal_abort(ptr noundef nonnull @.str.7, ptr noundef nonnull @__func__._get_stats) #11
  unreachable

29:                                               ; preds = %24
  %30 = load ptr, ptr %0, align 8
  %31 = getelementptr inbounds nuw i8, ptr %30, i64 168
  %32 = load i16, ptr %31, align 8
  %33 = load ptr, ptr %1, align 8
  tail call void @slurmdb_pack_stats_msg(ptr noundef nonnull @rpc_stats, i16 noundef zeroext %32, ptr noundef %33) #10
  %34 = tail call i32 @pthread_mutex_unlock(ptr noundef nonnull @rpc_mutex) #10
  %.not20 = icmp eq i32 %34, 0
  br i1 %.not20, label %37, label %35

35:                                               ; preds = %29
  %36 = tail call ptr @__errno_location() #12
  store i32 %34, ptr %36, align 4
  tail call void (ptr, ...) @fatal_abort(ptr noundef nonnull @.str.9, ptr noundef nonnull @__func__._get_stats) #11
  unreachable

37:                                               ; preds = %29, %11
  %.0 = phi i32 [ 2002, %11 ], [ 0, %29 ]
  ret i32 %.0
}